; Function Attrs: mustprogress uwtable
define dso_local void @_ZN16btCollisionWorld9serializeEP12btSerializer(ptr nocapture noundef nonnull readonly align 8 dereferenceable(121) %this, ptr noundef %serializer) unnamed_addr #4 align 2 {
entry:
  %vtable = load ptr, ptr %serializer, align 8
  %vfn = getelementptr inbounds i8, ptr %vtable, i64 64
  %0 = load ptr, ptr %vfn, align 8
  tail call void %0(ptr noundef nonnull align 8 dereferenceable(8) %serializer)
  tail call void @_ZN16btCollisionWorld25serializeCollisionObjectsEP12btSerializer(ptr noundef nonnull align 8 dereferenceable(121) %this, ptr noundef nonnull %serializer)
  tail call void @_ZN16btCollisionWorld25serializeContactManifoldsEP12btSerializer(ptr noundef nonnull align 8 dereferenceable(121) %this, ptr noundef nonnull %serializer)
  %vtable2 = load ptr, ptr %serializer, align 8
  %vfn3 = getelementptr inbounds i8, ptr %vtable2, i64 72
  %1 = load ptr, ptr %vfn3, align 8
  tail call void %1(ptr noundef nonnull align 8 dereferenceable(8) %serializer)
  ret void
}